; Function Attrs: mustprogress uwtable
define internal void @"_ZNSt17_Function_handlerIFvRNSt7__cxx1112basic_stringIcSt11char_traitsIcESaIcEEEEZN13cmSystemTools7EnvDiff14ParseOperationERKS5_E3$_4E9_M_invokeERKSt9_Any_dataS6_"(ptr noundef nonnull readonly align 8 captures(none) dereferenceable(16) %0, ptr noundef nonnull align 8 dereferenceable(32) %1) #3 align 2 personality ptr @__gxx_personality_v0 {
  %3 = getelementptr inbounds nuw i8, ptr %1, i64 8
  %4 = load i64, ptr %3, align 8, !tbaa !25
  %5 = icmp eq i64 %4, 0
  br i1 %5, label %22, label %6

6:                                                ; preds = %2
  %7 = add i64 %4, 1
  %8 = load ptr, ptr %1, align 8, !tbaa !13
  %9 = getelementptr inbounds nuw i8, ptr %1, i64 16
  %10 = icmp eq ptr %8, %9
  br i1 %10, label %11, label %_ZNKSt7__cxx1112basic_stringIcSt11char_traitsIcESaIcEE8capacityEv.exit.i.i.i.i.i

11:                                               ; preds = %6
  %12 = icmp ult i64 %4, 16
  tail call void @llvm.assume(i1 %12)
  br label %_ZNKSt7__cxx1112basic_stringIcSt11char_traitsIcESaIcEE8capacityEv.exit.i.i.i.i.i

_ZNKSt7__cxx1112basic_stringIcSt11char_traitsIcESaIcEE8capacityEv.exit.i.i.i.i.i: ; preds = %11, %6
  %13 = load i64, ptr %9, align 8
  %14 = select i1 %10, i64 15, i64 %13
  %15 = icmp ugt i64 %7, %14
  br i1 %15, label %16, label %_ZNSt7__cxx1112basic_stringIcSt11char_traitsIcESaIcEEpLEc.exit.i.i.i

16:                                               ; preds = %_ZNKSt7__cxx1112basic_stringIcSt11char_traitsIcESaIcEE8capacityEv.exit.i.i.i.i.i
  tail call void @_ZNSt7__cxx1112basic_stringIcSt11char_traitsIcESaIcEE9_M_mutateEmmPKcm(ptr noundef nonnull align 8 dereferenceable(32) %1, i64 noundef %4, i64 noundef 0, ptr noundef null, i64 noundef 1)
  %.pre.i.i.i.i.i = load ptr, ptr %1, align 8, !tbaa !13
  br label %_ZNSt7__cxx1112basic_stringIcSt11char_traitsIcESaIcEEpLEc.exit.i.i.i

_ZNSt7__cxx1112basic_stringIcSt11char_traitsIcESaIcEEpLEc.exit.i.i.i: ; preds = %16, %_ZNKSt7__cxx1112basic_stringIcSt11char_traitsIcESaIcEE8capacityEv.exit.i.i.i.i.i
  %17 = phi ptr [ %.pre.i.i.i.i.i, %16 ], [ %8, %_ZNKSt7__cxx1112basic_stringIcSt11char_traitsIcESaIcEE8capacityEv.exit.i.i.i.i.i ]
  %18 = getelementptr inbounds nuw i8, ptr %17, i64 %4
  store i8 59, ptr %18, align 1, !tbaa !26
  store i64 %7, ptr %3, align 8, !tbaa !25
  %19 = load ptr, ptr %1, align 8, !tbaa !13
  %20 = getelementptr inbounds nuw i8, ptr %19, i64 %7
  store i8 0, ptr %20, align 1, !tbaa !26
  %.pre.i.i.i = load i64, ptr %3, align 8, !tbaa !25
  %21 = sub i64 4611686018427387903, %.pre.i.i.i
  br label %22

22:                                               ; preds = %_ZNSt7__cxx1112basic_stringIcSt11char_traitsIcESaIcEEpLEc.exit.i.i.i, %2
  %23 = phi i64 [ %21, %_ZNSt7__cxx1112basic_stringIcSt11char_traitsIcESaIcEEpLEc.exit.i.i.i ], [ 4611686018427387903, %2 ]
  %24 = load ptr, ptr %0, align 8, !tbaa !951
  %25 = getelementptr inbounds nuw i8, ptr %24, i64 8
  %26 = load i64, ptr %25, align 8, !tbaa !25
  %27 = icmp ult i64 %23, %26
  br i1 %27, label %28, label %"_ZSt10__invoke_rIvRZN13cmSystemTools7EnvDiff14ParseOperationERKNSt7__cxx1112basic_stringIcSt11char_traitsIcESaIcEEEE3$_4JRS7_EENSt9enable_ifIX16is_invocable_r_vIT_T0_DpT1_EESE_E4typeEOSF_DpOSG_.exit"

28:                                               ; preds = %22
  tail call void @_ZSt20__throw_length_errorPKc(ptr noundef nonnull @.str.151) #40
  unreachable

"_ZSt10__invoke_rIvRZN13cmSystemTools7EnvDiff14ParseOperationERKNSt7__cxx1112basic_stringIcSt11char_traitsIcESaIcEEEE3$_4JRS7_EENSt9enable_ifIX16is_invocable_r_vIT_T0_DpT1_EESE_E4typeEOSF_DpOSG_.exit": ; preds = %22
  %29 = load ptr, ptr %24, align 8, !tbaa !13
  %30 = tail call noundef nonnull align 8 dereferenceable(32) ptr @_ZNSt7__cxx1112basic_stringIcSt11char_traitsIcESaIcEE9_M_appendEPKcm(ptr noundef nonnull align 8 dereferenceable(32) %1, ptr noundef %29, i64 noundef %26)
  ret void
}